target datalayout = "e-m:e-p270:32:32-p271:32:32-p272:64:64-i64:64-i128:128-f80:128-n8:16:32:64-S128"
target triple = "x86_64-pc-linux-gnu"

@rb_eArgError = external global i64, align 8
@_maxgroups = internal global i32 -1, align 4
@.str.248 = private unnamed_addr constant [32 x i8] c"maxgroups %d should be positive\00", align 1

; Function Attrs: inlinehint nounwind sspstrong willreturn memory(none) uwtable
define internal i64 @RB_INT2FIX(i64 noundef %0) #4 {
  %2 = alloca i64, align 8
  %3 = alloca i64, align 8
  %4 = alloca i64, align 8
  %5 = alloca i64, align 8
  %6 = alloca i64, align 8
  %7 = alloca i64, align 8
  store i64 %0, ptr %2, align 8, !tbaa !35
  call void @llvm.lifetime.start.p0(i64 8, ptr %3) #27
  %8 = load i64, ptr %2, align 8, !tbaa !35
  store i64 %8, ptr %3, align 8, !tbaa !35
  call void @llvm.lifetime.start.p0(i64 8, ptr %4) #27
  %9 = load i64, ptr %3, align 8, !tbaa !35
  %10 = shl i64 %9, 1
  %11 = add i64 %10, 1
  store i64 %11, ptr %4, align 8, !tbaa !35
  call void @llvm.lifetime.start.p0(i64 8, ptr %5) #27
  %12 = load i64, ptr %4, align 8, !tbaa !35
  store i64 %12, ptr %5, align 8, !tbaa !35
  call void @llvm.lifetime.start.p0(i64 8, ptr %6) #27
  %13 = load i64, ptr %5, align 8, !tbaa !35
  store i64 %13, ptr %6, align 8, !tbaa !35
  call void @llvm.lifetime.start.p0(i64 8, ptr %7) #27
  %14 = load i64, ptr %6, align 8, !tbaa !35
  store i64 %14, ptr %7, align 8, !tbaa !35
  %15 = load i64, ptr %7, align 8, !tbaa !35
  call void @llvm.lifetime.end.p0(i64 8, ptr %7) #27
  call void @llvm.lifetime.end.p0(i64 8, ptr %6) #27
  call void @llvm.lifetime.end.p0(i64 8, ptr %5) #27
  call void @llvm.lifetime.end.p0(i64 8, ptr %4) #27
  call void @llvm.lifetime.end.p0(i64 8, ptr %3) #27
  ret i64 %15
}

; Function Attrs: nounwind sspstrong uwtable
define internal i32 @get_sc_ngroups_max() #0 {
  %1 = call i64 @sysconf(i32 noundef 3) #27
  %2 = trunc i64 %1 to i32
  ret i32 %2
}

; Function Attrs: inlinehint nounwind sspstrong uwtable
define internal i32 @RB_FIX2INT(i64 noundef %0) #1 {
  %2 = alloca i64, align 8
  %3 = alloca i64, align 8
  store i64 %0, ptr %2, align 8, !tbaa !35
  call void @llvm.lifetime.start.p0(i64 8, ptr %3) #27
  %4 = load i64, ptr %2, align 8, !tbaa !35
  %5 = call i64 @rb_fix2int(i64 noundef %4)
  store i64 %5, ptr %3, align 8, !tbaa !35
  %6 = load i64, ptr %3, align 8, !tbaa !35
  %7 = trunc i64 %6 to i32
  call void @llvm.lifetime.end.p0(i64 8, ptr %3) #27
  ret i32 %7
}

; Function Attrs: nounwind sspstrong uwtable
define internal i64 @proc_setmaxgroups(i64 noundef %0, i64 noundef %1) #0 {
  %3 = alloca i64, align 8
  %4 = alloca i64, align 8
  %5 = alloca i32, align 4
  %6 = alloca i32, align 4
  store i64 %0, ptr %3, align 8, !tbaa !35
  store i64 %1, ptr %4, align 8, !tbaa !35
  call void @llvm.lifetime.start.p0(i64 4, ptr %5) #27
  %7 = load i64, ptr %4, align 8, !tbaa !35
  %8 = call i32 @RB_FIX2INT(i64 noundef %7)
  store i32 %8, ptr %5, align 4, !tbaa !34
  call void @llvm.lifetime.start.p0(i64 4, ptr %6) #27
  %9 = call i32 @get_sc_ngroups_max()
  store i32 %9, ptr %6, align 4, !tbaa !34
  %10 = load i32, ptr %5, align 4, !tbaa !34
  %11 = icmp sle i32 %10, 0
  br i1 %11, label %12, label %15

12:                                               ; preds = %2
  %13 = load i64, ptr @rb_eArgError, align 8, !tbaa !35
  %14 = load i32, ptr %5, align 4, !tbaa !34
  call void (i64, ptr, ...) @rb_raise(i64 noundef %13, ptr noundef @.str.248, i32 noundef %14) #30
  unreachable

15:                                               ; preds = %2
  %16 = load i32, ptr %5, align 4, !tbaa !34
  %17 = icmp sgt i32 %16, 65536
  br i1 %17, label %18, label %19

18:                                               ; preds = %15
  store i32 65536, ptr %5, align 4, !tbaa !34
  br label %19

19:                                               ; preds = %18, %15
  %20 = load i32, ptr %6, align 4, !tbaa !34
  %21 = icmp sgt i32 %20, 0
  br i1 %21, label %22, label %28

22:                                               ; preds = %19
  %23 = load i32, ptr %5, align 4, !tbaa !34
  %24 = load i32, ptr %6, align 4, !tbaa !34
  %25 = icmp sgt i32 %23, %24
  br i1 %25, label %26, label %28

26:                                               ; preds = %22
  %27 = load i32, ptr %6, align 4, !tbaa !34
  store i32 %27, ptr %5, align 4, !tbaa !34
  br label %28

28:                                               ; preds = %26, %22, %19
  %29 = load i32, ptr %5, align 4, !tbaa !34
  store i32 %29, ptr @_maxgroups, align 4, !tbaa !34
  %30 = load i32, ptr @_maxgroups, align 4, !tbaa !34
  %31 = sext i32 %30 to i64
  %32 = call i64 @RB_INT2FIX(i64 noundef %31) #28
  call void @llvm.lifetime.end.p0(i64 4, ptr %6) #27
  call void @llvm.lifetime.end.p0(i64 4, ptr %5) #27
  ret i64 %32
}