; Function Attrs: nounwind sspstrong uwtable
define internal range(i64 1, 8589934592) i64 @proc_setmaxgroups(i64 %0, i64 noundef %1) #1 {
  %3 = tail call i64 @rb_fix2int(i64 noundef %1) #27
  %4 = trunc i64 %3 to i32
  %5 = tail call i64 @sysconf(i32 noundef 3) #27
  %6 = icmp slt i32 %4, 1
  br i1 %6, label %7, label %9

7:                                                ; preds = %2
  %8 = load i64, ptr @rb_eArgError, align 8, !tbaa !43
  tail call void (i64, ptr, ...) @rb_raise(i64 noundef %8, ptr noundef nonnull @.str.248, i32 noundef %4) #29
  unreachable

9:                                                ; preds = %2
  %10 = trunc i64 %5 to i32
  %11 = tail call i32 @llvm.umin.i32(i32 %4, i32 65536)
  %12 = icmp sgt i32 %10, 0
  %13 = tail call i32 @llvm.smin.i32(i32 %11, i32 %10)
  %.0 = select i1 %12, i32 %13, i32 %11
  store i32 %.0, ptr @_maxgroups, align 4, !tbaa !60
  %14 = zext nneg i32 %.0 to i64
  %15 = shl nuw nsw i64 %14, 1
  %16 = or disjoint i64 %15, 1
  ret i64 %16
}